target datalayout = "e-m:e-p270:32:32-p271:32:32-p272:64:64-i64:64-i128:128-f80:128-n8:16:32:64-S128"
target triple = "x86_64-unknown-linux-gnu"

%struct.SCSISense = type { i8, i8, i8 }
%struct.SCSIDiskState = type { %struct.SCSIDevice, i32, i8, i8, i8, i16, i64, i64, i32, ptr, ptr, ptr, ptr, ptr, ptr, i8, i8, i16 }
%struct.SCSIDevice = type { %struct.DeviceState, ptr, ptr, i32, %struct.BlockConf, %struct.SCSISense, i8, [252 x i8], i32, %union.anon, i32, i32, i32, i32, i64, i64, i64, i32, i32, i32, i8, i8 }
%struct.DeviceState = type { %struct.Object, ptr, ptr, i8, i8, i64, ptr, i32, i8, ptr, %struct.NamedGPIOListHead, %struct.NamedClockListHead, %struct.BusStateHead, i32, i32, i32, %struct.ResettableState, ptr, %struct.MemReentrancyGuard }
%struct.Object = type { ptr, ptr, ptr, i32, ptr }
%struct.NamedGPIOListHead = type { ptr }
%struct.NamedClockListHead = type { ptr }
%struct.BusStateHead = type { ptr }
%struct.ResettableState = type { i32, i8, i8 }
%struct.MemReentrancyGuard = type { i8 }
%struct.BlockConf = type { ptr, i32, i32, i32, i32, i32, i32, i32, i32, i32, i32, i32, i32, i32, i32, i8, i32, i32, i32, i32 }
%union.anon = type { %struct.QTailQLink }
%struct.QTailQLink = type { ptr, ptr }
%struct.SCSIRequest = type { ptr, ptr, ptr, i32, i32, i32, i16, i16, ptr, i64, %struct.SCSICommand, %struct.NotifierList, [252 x i8], i32, i8, i8, i8, i8, ptr, ptr, %union.anon.0 }
%struct.SCSICommand = type { [16 x i8], i32, i64, i64, i32 }
%struct.NotifierList = type { %struct.anon }
%struct.anon = type { ptr }
%union.anon.0 = type { %struct.QTailQLink }
%struct.timeval = type { i64, i64 }

@trace_events_enabled_count = external global i32, align 4
@message_with_timestamp = external global i8, align 1
@qemu_loglevel = external global i32, align 4
@_TRACE_SCSI_DISK_EMULATE_READ_TOC_DSTATE = external global i16, align 2
@.str.59 = private unnamed_addr constant [78 x i8] c"%d@%zu.%06zu:scsi_disk_emulate_read_toc Read TOC (track %d format %d msf %d)\0A\00", align 1
@.str.60 = private unnamed_addr constant [65 x i8] c"scsi_disk_emulate_read_toc Read TOC (track %d format %d msf %d)\0A\00", align 1

; Function Attrs: nounwind sspstrong uwtable
define internal zeroext i1 @qemu_loglevel_mask(i32 noundef %mask) #0 {
entry:
  %mask.addr = alloca i32, align 4
  store i32 %mask, ptr %mask.addr, align 4
  %0 = load i32, ptr @qemu_loglevel, align 4
  %1 = load i32, ptr %mask.addr, align 4
  %and = and i32 %0, %1
  %cmp = icmp ne i32 %and, 0
  ret i1 %cmp
}

; Function Attrs: nounwind sspstrong uwtable
define internal void @_nocheck__trace_scsi_disk_emulate_read_toc(i32 noundef %start_track, i32 noundef %format, i32 noundef %msf) #0 {
entry:
  %start_track.addr = alloca i32, align 4
  %format.addr = alloca i32, align 4
  %msf.addr = alloca i32, align 4
  %_now = alloca %struct.timeval, align 8
  store i32 %start_track, ptr %start_track.addr, align 4
  store i32 %format, ptr %format.addr, align 4
  store i32 %msf, ptr %msf.addr, align 4
  %0 = load i32, ptr @trace_events_enabled_count, align 4
  %tobool = icmp ne i32 %0, 0
  %lnot = xor i1 %tobool, true
  %lnot1 = xor i1 %lnot, true
  %lnot.ext = zext i1 %lnot1 to i32
  %conv = sext i32 %lnot.ext to i64
  %tobool2 = icmp ne i64 %conv, 0
  br i1 %tobool2, label %land.lhs.true, label %if.end11

land.lhs.true:                                    ; preds = %entry
  %1 = load i16, ptr @_TRACE_SCSI_DISK_EMULATE_READ_TOC_DSTATE, align 2
  %conv3 = zext i16 %1 to i32
  %tobool4 = icmp ne i32 %conv3, 0
  br i1 %tobool4, label %land.lhs.true5, label %if.end11

land.lhs.true5:                                   ; preds = %land.lhs.true
  %call = call zeroext i1 @qemu_loglevel_mask(i32 noundef 32768)
  br i1 %call, label %if.then, label %if.end11

if.then:                                          ; preds = %land.lhs.true5
  %2 = load i8, ptr @message_with_timestamp, align 1
  %tobool7 = trunc i8 %2 to i1
  br i1 %tobool7, label %if.then8, label %if.else

if.then8:                                         ; preds = %if.then
  %call9 = call i32 @gettimeofday(ptr noundef %_now, ptr noundef null) #13
  %call10 = call i32 @qemu_get_thread_id()
  %tv_sec = getelementptr inbounds %struct.timeval, ptr %_now, i32 0, i32 0
  %3 = load i64, ptr %tv_sec, align 8
  %tv_usec = getelementptr inbounds %struct.timeval, ptr %_now, i32 0, i32 1
  %4 = load i64, ptr %tv_usec, align 8
  %5 = load i32, ptr %start_track.addr, align 4
  %6 = load i32, ptr %format.addr, align 4
  %7 = load i32, ptr %msf.addr, align 4
  call void (ptr, ...) @qemu_log(ptr noundef @.str.59, i32 noundef %call10, i64 noundef %3, i64 noundef %4, i32 noundef %5, i32 noundef %6, i32 noundef %7)
  br label %if.end

if.else:                                          ; preds = %if.then
  %8 = load i32, ptr %start_track.addr, align 4
  %9 = load i32, ptr %format.addr, align 4
  %10 = load i32, ptr %msf.addr, align 4
  call void (ptr, ...) @qemu_log(ptr noundef @.str.60, i32 noundef %8, i32 noundef %9, i32 noundef %10)
  br label %if.end

if.end:                                           ; preds = %if.else, %if.then8
  br label %if.end11

if.end11:                                         ; preds = %if.end, %land.lhs.true5, %land.lhs.true, %entry
  ret void
}

; Function Attrs: nounwind sspstrong uwtable
define internal void @trace_scsi_disk_emulate_read_toc(i32 noundef %start_track, i32 noundef %format, i32 noundef %msf) #0 {
entry:
  %start_track.addr = alloca i32, align 4
  %format.addr = alloca i32, align 4
  %msf.addr = alloca i32, align 4
  store i32 %start_track, ptr %start_track.addr, align 4
  store i32 %format, ptr %format.addr, align 4
  store i32 %msf, ptr %msf.addr, align 4
  %0 = load i32, ptr %start_track.addr, align 4
  %1 = load i32, ptr %format.addr, align 4
  %2 = load i32, ptr %msf.addr, align 4
  call void @_nocheck__trace_scsi_disk_emulate_read_toc(i32 noundef %0, i32 noundef %1, i32 noundef %2)
  ret void
}

; Function Attrs: nounwind sspstrong uwtable
define internal i32 @scsi_disk_emulate_read_toc(ptr noundef %req, ptr noundef %outbuf) #0 {
entry:
  %retval = alloca i32, align 4
  %req.addr = alloca ptr, align 8
  %outbuf.addr = alloca ptr, align 8
  %s = alloca ptr, align 8
  %tmp = alloca ptr, align 8
  %__mptr = alloca ptr, align 8
  %tmp1 = alloca ptr, align 8
  %start_track = alloca i32, align 4
  %format = alloca i32, align 4
  %msf = alloca i32, align 4
  %toclen = alloca i32, align 4
  %nb_sectors = alloca i64, align 8
  store ptr %req, ptr %req.addr, align 8
  store ptr %outbuf, ptr %outbuf.addr, align 8
  %0 = load ptr, ptr %req.addr, align 8
  %dev = getelementptr inbounds %struct.SCSIRequest, ptr %0, i32 0, i32 1
  %1 = load ptr, ptr %dev, align 8
  store ptr %1, ptr %__mptr, align 8
  %2 = load ptr, ptr %__mptr, align 8
  %add.ptr = getelementptr i8, ptr %2, i64 0
  store ptr %add.ptr, ptr %tmp1, align 8
  %3 = load ptr, ptr %tmp1, align 8
  store ptr %3, ptr %tmp, align 8
  %4 = load ptr, ptr %tmp, align 8
  store ptr %4, ptr %s, align 8
  %5 = load ptr, ptr %req.addr, align 8
  %cmd = getelementptr inbounds %struct.SCSIRequest, ptr %5, i32 0, i32 10
  %buf = getelementptr inbounds %struct.SCSICommand, ptr %cmd, i32 0, i32 0
  %arrayidx = getelementptr [16 x i8], ptr %buf, i64 0, i64 1
  %6 = load i8, ptr %arrayidx, align 1
  %conv = zext i8 %6 to i32
  %and = and i32 %conv, 2
  store i32 %and, ptr %msf, align 4
  %7 = load ptr, ptr %req.addr, align 8
  %cmd2 = getelementptr inbounds %struct.SCSIRequest, ptr %7, i32 0, i32 10
  %buf3 = getelementptr inbounds %struct.SCSICommand, ptr %cmd2, i32 0, i32 0
  %arrayidx4 = getelementptr [16 x i8], ptr %buf3, i64 0, i64 2
  %8 = load i8, ptr %arrayidx4, align 2
  %conv5 = zext i8 %8 to i32
  %and6 = and i32 %conv5, 15
  store i32 %and6, ptr %format, align 4
  %9 = load ptr, ptr %req.addr, align 8
  %cmd7 = getelementptr inbounds %struct.SCSIRequest, ptr %9, i32 0, i32 10
  %buf8 = getelementptr inbounds %struct.SCSICommand, ptr %cmd7, i32 0, i32 0
  %arrayidx9 = getelementptr [16 x i8], ptr %buf8, i64 0, i64 6
  %10 = load i8, ptr %arrayidx9, align 2
  %conv10 = zext i8 %10 to i32
  store i32 %conv10, ptr %start_track, align 4
  %11 = load ptr, ptr %s, align 8
  %qdev = getelementptr inbounds %struct.SCSIDiskState, ptr %11, i32 0, i32 0
  %conf = getelementptr inbounds %struct.SCSIDevice, ptr %qdev, i32 0, i32 4
  %blk = getelementptr inbounds %struct.BlockConf, ptr %conf, i32 0, i32 0
  %12 = load ptr, ptr %blk, align 8
  call void @blk_get_geometry(ptr noundef %12, ptr noundef %nb_sectors)
  %13 = load i32, ptr %start_track, align 4
  %14 = load i32, ptr %format, align 4
  %15 = load i32, ptr %msf, align 4
  %shr = ashr i32 %15, 1
  call void @trace_scsi_disk_emulate_read_toc(i32 noundef %13, i32 noundef %14, i32 noundef %shr)
  %16 = load ptr, ptr %s, align 8
  %qdev11 = getelementptr inbounds %struct.SCSIDiskState, ptr %16, i32 0, i32 0
  %blocksize = getelementptr inbounds %struct.SCSIDevice, ptr %qdev11, i32 0, i32 12
  %17 = load i32, ptr %blocksize, align 8
  %conv12 = sext i32 %17 to i64
  %div = udiv i64 %conv12, 512
  %18 = load i64, ptr %nb_sectors, align 8
  %div13 = udiv i64 %18, %div
  store i64 %div13, ptr %nb_sectors, align 8
  %19 = load i32, ptr %format, align 4
  switch i32 %19, label %sw.default [
    i32 0, label %sw.bb
    i32 1, label %sw.bb15
    i32 2, label %sw.bb19
  ]

sw.bb:                                            ; preds = %entry
  %20 = load i64, ptr %nb_sectors, align 8
  %conv14 = trunc i64 %20 to i32
  %21 = load ptr, ptr %outbuf.addr, align 8
  %22 = load i32, ptr %msf, align 4
  %23 = load i32, ptr %start_track, align 4
  %call = call i32 @cdrom_read_toc(i32 noundef %conv14, ptr noundef %21, i32 noundef %22, i32 noundef %23)
  store i32 %call, ptr %toclen, align 4
  br label %sw.epilog

sw.bb15:                                          ; preds = %entry
  store i32 12, ptr %toclen, align 4
  %24 = load ptr, ptr %outbuf.addr, align 8
  call void @llvm.memset.p0.i64(ptr align 1 %24, i8 0, i64 12, i1 false)
  %25 = load ptr, ptr %outbuf.addr, align 8
  %arrayidx16 = getelementptr i8, ptr %25, i64 1
  store i8 10, ptr %arrayidx16, align 1
  %26 = load ptr, ptr %outbuf.addr, align 8
  %arrayidx17 = getelementptr i8, ptr %26, i64 2
  store i8 1, ptr %arrayidx17, align 1
  %27 = load ptr, ptr %outbuf.addr, align 8
  %arrayidx18 = getelementptr i8, ptr %27, i64 3
  store i8 1, ptr %arrayidx18, align 1
  br label %sw.epilog

sw.bb19:                                          ; preds = %entry
  %28 = load i64, ptr %nb_sectors, align 8
  %conv20 = trunc i64 %28 to i32
  %29 = load ptr, ptr %outbuf.addr, align 8
  %30 = load i32, ptr %msf, align 4
  %31 = load i32, ptr %start_track, align 4
  %call21 = call i32 @cdrom_read_toc_raw(i32 noundef %conv20, ptr noundef %29, i32 noundef %30, i32 noundef %31)
  store i32 %call21, ptr %toclen, align 4
  br label %sw.epilog

sw.default:                                       ; preds = %entry
  store i32 -1, ptr %retval, align 4
  br label %return

sw.epilog:                                        ; preds = %sw.bb19, %sw.bb15, %sw.bb
  %32 = load i32, ptr %toclen, align 4
  store i32 %32, ptr %retval, align 4
  br label %return

return:                                           ; preds = %sw.epilog, %sw.default
  %33 = load i32, ptr %retval, align 4
  ret i32 %33
}