; Function Attrs: nounwind sspstrong uwtable
define internal fastcc i32 @scsi_disk_emulate_read_toc(ptr noundef readonly captures(none) %req, ptr noundef %outbuf) unnamed_addr #0 {
entry:
  %_now.i.i = alloca %struct.timeval, align 8
  %nb_sectors = alloca i64, align 8
  %dev = getelementptr inbounds nuw i8, ptr %req, i64 8
  %0 = load ptr, ptr %dev, align 8
  %arrayidx = getelementptr i8, ptr %req, i64 57
  %1 = load i8, ptr %arrayidx, align 1
  %2 = and i8 %1, 2
  %and = zext nneg i8 %2 to i32
  %arrayidx4 = getelementptr i8, ptr %req, i64 58
  %3 = load i8, ptr %arrayidx4, align 2
  %4 = and i8 %3, 15
  %and6 = zext nneg i8 %4 to i32
  %arrayidx9 = getelementptr i8, ptr %req, i64 62
  %5 = load i8, ptr %arrayidx9, align 2
  %conv10 = zext i8 %5 to i32
  %conf = getelementptr inbounds nuw i8, ptr %0, i64 184
  %6 = load ptr, ptr %conf, align 8
  call void @blk_get_geometry(ptr noundef %6, ptr noundef nonnull %nb_sectors) #18
  %shr = lshr exact i32 %and, 1
  call void @llvm.lifetime.start.p0(i64 16, ptr nonnull %_now.i.i)
  %7 = load i32, ptr @trace_events_enabled_count, align 4
  %tobool.i.i = icmp ne i32 %7, 0
  %8 = load i16, ptr @_TRACE_SCSI_DISK_EMULATE_READ_TOC_DSTATE, align 2
  %tobool4.i.i = icmp ne i16 %8, 0
  %or.cond.i.i = select i1 %tobool.i.i, i1 %tobool4.i.i, i1 false
  br i1 %or.cond.i.i, label %land.lhs.true5.i.i, label %trace_scsi_disk_emulate_read_toc.exit

land.lhs.true5.i.i:                               ; preds = %entry
  %9 = load i32, ptr @qemu_loglevel, align 4
  %and.i.i.i = and i32 %9, 32768
  %cmp.i.not.i.i = icmp eq i32 %and.i.i.i, 0
  br i1 %cmp.i.not.i.i, label %trace_scsi_disk_emulate_read_toc.exit, label %if.then.i.i

if.then.i.i:                                      ; preds = %land.lhs.true5.i.i
  %10 = load i8, ptr @message_with_timestamp, align 1
  %tobool7.i.i = trunc i8 %10 to i1
  br i1 %tobool7.i.i, label %if.then8.i.i, label %if.else.i.i

if.then8.i.i:                                     ; preds = %if.then.i.i
  %call9.i.i = call i32 @gettimeofday(ptr noundef nonnull %_now.i.i, ptr noundef null) #18
  %call10.i.i = call i32 @qemu_get_thread_id() #18
  %11 = load i64, ptr %_now.i.i, align 8
  %tv_usec.i.i = getelementptr inbounds nuw i8, ptr %_now.i.i, i64 8
  %12 = load i64, ptr %tv_usec.i.i, align 8
  call void (ptr, ...) @qemu_log(ptr noundef nonnull @.str.59, i32 noundef %call10.i.i, i64 noundef %11, i64 noundef %12, i32 noundef range(i32 0, 256) %conv10, i32 noundef range(i32 0, 16) %and6, i32 noundef range(i32 0, 2) %shr) #18
  br label %trace_scsi_disk_emulate_read_toc.exit

if.else.i.i:                                      ; preds = %if.then.i.i
  call void (ptr, ...) @qemu_log(ptr noundef nonnull @.str.60, i32 noundef range(i32 0, 256) %conv10, i32 noundef range(i32 0, 16) %and6, i32 noundef range(i32 0, 2) %shr) #18
  br label %trace_scsi_disk_emulate_read_toc.exit

trace_scsi_disk_emulate_read_toc.exit:            ; preds = %entry, %land.lhs.true5.i.i, %if.then8.i.i, %if.else.i.i
  call void @llvm.lifetime.end.p0(i64 16, ptr nonnull %_now.i.i)
  %blocksize = getelementptr inbounds nuw i8, ptr %0, i64 560
  %13 = load i32, ptr %blocksize, align 8
  %conv12 = sext i32 %13 to i64
  %div15 = lshr i64 %conv12, 9
  %14 = load i64, ptr %nb_sectors, align 8
  %div13 = udiv i64 %14, %div15
  store i64 %div13, ptr %nb_sectors, align 8
  switch i8 %4, label %return [
    i8 0, label %sw.bb
    i8 1, label %sw.bb15
    i8 2, label %sw.bb19
  ]

sw.bb:                                            ; preds = %trace_scsi_disk_emulate_read_toc.exit
  %conv14 = trunc i64 %div13 to i32
  %call = call i32 @cdrom_read_toc(i32 noundef %conv14, ptr noundef %outbuf, i32 noundef %and, i32 noundef %conv10) #18
  br label %return

sw.bb15:                                          ; preds = %trace_scsi_disk_emulate_read_toc.exit
  call void @llvm.memset.p0.i64(ptr noundef nonnull align 1 dereferenceable(12) %outbuf, i8 0, i64 12, i1 false)
  %arrayidx16 = getelementptr i8, ptr %outbuf, i64 1
  store i8 10, ptr %arrayidx16, align 1
  %arrayidx17 = getelementptr i8, ptr %outbuf, i64 2
  store i8 1, ptr %arrayidx17, align 1
  %arrayidx18 = getelementptr i8, ptr %outbuf, i64 3
  store i8 1, ptr %arrayidx18, align 1
  br label %return

sw.bb19:                                          ; preds = %trace_scsi_disk_emulate_read_toc.exit
  %conv20 = trunc i64 %div13 to i32
  %call21 = call i32 @cdrom_read_toc_raw(i32 noundef %conv20, ptr noundef %outbuf, i32 noundef %and, i32 noundef %conv10) #18
  br label %return

return:                                           ; preds = %sw.bb, %sw.bb15, %sw.bb19, %trace_scsi_disk_emulate_read_toc.exit
  %retval.0 = phi i32 [ -1, %trace_scsi_disk_emulate_read_toc.exit ], [ %call21, %sw.bb19 ], [ 12, %sw.bb15 ], [ %call, %sw.bb ]
  ret i32 %retval.0
}